; Function Attrs: nounwind uwtable
define ptr @l_Lean_RBMap_fromArray___rarg___boxed(ptr noundef %0, ptr noundef %1) #1 {
  %3 = getelementptr i8, ptr %0, i64 8
  %.val.i = load i64, ptr %3, align 8, !tbaa !16
  %.mask.i = and i64 %.val.i, 9223372036854775807
  %.not.i4 = icmp eq i64 %.mask.i, 0
  br i1 %.not.i4, label %lean_dec.exit24.i, label %lean_dec.exit.i

lean_dec.exit24.i:                                ; preds = %2
  %4 = ptrtoint ptr %1 to i64
  %5 = and i64 %4, 1
  %.not36.i = icmp eq i64 %5, 0
  br i1 %.not36.i, label %6, label %l_Lean_RBMap_fromArray___rarg.exit

6:                                                ; preds = %lean_dec.exit24.i
  %7 = load i32, ptr %1, align 4, !tbaa !4
  %8 = icmp sgt i32 %7, 1
  br i1 %8, label %9, label %11, !prof !9

9:                                                ; preds = %6
  %10 = add nsw i32 %7, -1
  store i32 %10, ptr %1, align 4, !tbaa !4
  br label %l_Lean_RBMap_fromArray___rarg.exit

11:                                               ; preds = %6
  %.not.i25.i = icmp eq i32 %7, 0
  br i1 %.not.i25.i, label %l_Lean_RBMap_fromArray___rarg.exit, label %12

12:                                               ; preds = %11
  tail call void @lean_dec_ref_cold(ptr noundef nonnull %1) #9
  br label %l_Lean_RBMap_fromArray___rarg.exit

lean_dec.exit.i:                                  ; preds = %2
  %13 = tail call ptr @l_Array_foldlMUnsafe_fold___at_Lean_RBMap_fromArray___spec__1___rarg(ptr noundef %1, ptr noundef nonnull readonly %0, i64 noundef 0, i64 noundef %.mask.i, ptr noundef nonnull inttoptr (i64 1 to ptr))
  br label %l_Lean_RBMap_fromArray___rarg.exit

l_Lean_RBMap_fromArray___rarg.exit:               ; preds = %lean_dec.exit24.i, %9, %11, %12, %lean_dec.exit.i
  %.0.i = phi ptr [ %13, %lean_dec.exit.i ], [ inttoptr (i64 1 to ptr), %12 ], [ inttoptr (i64 1 to ptr), %11 ], [ inttoptr (i64 1 to ptr), %9 ], [ inttoptr (i64 1 to ptr), %lean_dec.exit24.i ]
  %14 = ptrtoint ptr %0 to i64
  %15 = and i64 %14, 1
  %.not = icmp eq i64 %15, 0
  br i1 %.not, label %16, label %lean_dec.exit

16:                                               ; preds = %l_Lean_RBMap_fromArray___rarg.exit
  %17 = load i32, ptr %0, align 4, !tbaa !4
  %18 = icmp sgt i32 %17, 1
  br i1 %18, label %19, label %21, !prof !9

19:                                               ; preds = %16
  %20 = add nsw i32 %17, -1
  store i32 %20, ptr %0, align 4, !tbaa !4
  br label %lean_dec.exit

21:                                               ; preds = %16
  %.not.i = icmp eq i32 %17, 0
  br i1 %.not.i, label %lean_dec.exit, label %22

22:                                               ; preds = %21
  tail call void @lean_dec_ref_cold(ptr noundef nonnull %0) #9
  br label %lean_dec.exit

lean_dec.exit:                                    ; preds = %22, %21, %19, %l_Lean_RBMap_fromArray___rarg.exit
  ret ptr %.0.i
}